target datalayout = "e-m:e-p270:32:32-p271:32:32-p272:64:64-i64:64-i128:128-f80:128-n8:16:32:64-S128"
target triple = "x86_64-unknown-linux-gnu"

%"class.facebook::velox::HashStringAllocator::Header" = type { i32 }
%"struct.facebook::velox::HashStringAllocator::Position" = type { ptr, ptr }

; Function Attrs: mustprogress nounwind uwtable
define linkonce_odr noundef ptr @_ZN8facebook5velox19HashStringAllocator6Header3endEv(ptr noundef nonnull align 4 dereferenceable(4) %this) #2 comdat align 2 {
entry:
  %this.addr = alloca ptr, align 8
  store ptr %this, ptr %this.addr, align 8
  %this1 = load ptr, ptr %this.addr, align 8
  %call = call noundef ptr @_ZN8facebook5velox19HashStringAllocator6Header5beginEv(ptr noundef nonnull align 4 dereferenceable(4) %this1)
  %call2 = call noundef i32 @_ZNK8facebook5velox19HashStringAllocator6Header4sizeEv(ptr noundef nonnull align 4 dereferenceable(4) %this1)
  %idx.ext = sext i32 %call2 to i64
  %add.ptr = getelementptr inbounds i8, ptr %call, i64 %idx.ext
  ret ptr %add.ptr
}

; Function Attrs: mustprogress nounwind uwtable
define linkonce_odr noundef i32 @_ZNK8facebook5velox19HashStringAllocator6Header4sizeEv(ptr noundef nonnull align 4 dereferenceable(4) %this) #2 comdat align 2 {
entry:
  %this.addr = alloca ptr, align 8
  store ptr %this, ptr %this.addr, align 8
  %this1 = load ptr, ptr %this.addr, align 8
  %data_ = getelementptr inbounds %"class.facebook::velox::HashStringAllocator::Header", ptr %this1, i32 0, i32 0
  %0 = load i32, ptr %data_, align 4
  %and = and i32 %0, 536870911
  ret i32 %and
}

; Function Attrs: mustprogress uwtable
define linkonce_odr noundef ptr @_ZN8facebook5velox19HashStringAllocator6Header13nextContinuedEv(ptr noundef nonnull align 4 dereferenceable(4) %this) #0 comdat align 2 {
entry:
  %this.addr = alloca ptr, align 8
  store ptr %this, ptr %this.addr, align 8
  %this1 = load ptr, ptr %this.addr, align 8
  %call = call noundef ptr @_ZN8facebook5velox19HashStringAllocator6Header3endEv(ptr noundef nonnull align 4 dereferenceable(4) %this1)
  %add.ptr = getelementptr inbounds i8, ptr %call, i64 -8
  %0 = load ptr, ptr %add.ptr, align 8
  ret ptr %0
}

; Function Attrs: mustprogress nounwind uwtable
define linkonce_odr noundef zeroext i1 @_ZNK8facebook5velox19HashStringAllocator6Header11isContinuedEv(ptr noundef nonnull align 4 dereferenceable(4) %this) #2 comdat align 2 {
entry:
  %this.addr = alloca ptr, align 8
  store ptr %this, ptr %this.addr, align 8
  %this1 = load ptr, ptr %this.addr, align 8
  %data_ = getelementptr inbounds %"class.facebook::velox::HashStringAllocator::Header", ptr %this1, i32 0, i32 0
  %0 = load i32, ptr %data_, align 4
  %and = and i32 %0, 1073741824
  %cmp = icmp ne i32 %and, 0
  ret i1 %cmp
}

; Function Attrs: mustprogress nounwind uwtable
define linkonce_odr noundef ptr @_ZN8facebook5velox19HashStringAllocator6Header5beginEv(ptr noundef nonnull align 4 dereferenceable(4) %this) #2 comdat align 2 {
entry:
  %this.addr = alloca ptr, align 8
  store ptr %this, ptr %this.addr, align 8
  %this1 = load ptr, ptr %this.addr, align 8
  %add.ptr = getelementptr inbounds %"class.facebook::velox::HashStringAllocator::Header", ptr %this1, i64 1
  ret ptr %add.ptr
}

; Function Attrs: mustprogress nounwind uwtable
define linkonce_odr noundef i32 @_ZNK8facebook5velox19HashStringAllocator6Header10usableSizeEv(ptr noundef nonnull align 4 dereferenceable(4) %this) #2 comdat align 2 {
entry:
  %this.addr = alloca ptr, align 8
  store ptr %this, ptr %this.addr, align 8
  %this1 = load ptr, ptr %this.addr, align 8
  %call = call noundef zeroext i1 @_ZNK8facebook5velox19HashStringAllocator6Header11isContinuedEv(ptr noundef nonnull align 4 dereferenceable(4) %this1)
  br i1 %call, label %cond.true, label %cond.false

cond.true:                                        ; preds = %entry
  %call2 = call noundef i32 @_ZNK8facebook5velox19HashStringAllocator6Header4sizeEv(ptr noundef nonnull align 4 dereferenceable(4) %this1)
  %sub = sub i32 %call2, 8
  br label %cond.end

cond.false:                                       ; preds = %entry
  %call3 = call noundef i32 @_ZNK8facebook5velox19HashStringAllocator6Header4sizeEv(ptr noundef nonnull align 4 dereferenceable(4) %this1)
  br label %cond.end

cond.end:                                         ; preds = %cond.false, %cond.true
  %cond = phi i32 [ %sub, %cond.true ], [ %call3, %cond.false ]
  ret i32 %cond
}

; Function Attrs: mustprogress nounwind uwtable
define linkonce_odr noundef zeroext i1 @_ZNK8facebook5velox19HashStringAllocator8Position5isSetEv(ptr noundef nonnull align 8 dereferenceable(16) %this) #2 comdat align 2 {
entry:
  %this.addr = alloca ptr, align 8
  store ptr %this, ptr %this.addr, align 8
  %this1 = load ptr, ptr %this.addr, align 8
  %header = getelementptr inbounds %"struct.facebook::velox::HashStringAllocator::Position", ptr %this1, i32 0, i32 0
  %0 = load ptr, ptr %header, align 8
  %cmp = icmp ne ptr %0, null
  br i1 %cmp, label %land.rhs, label %land.end

land.rhs:                                         ; preds = %entry
  %position = getelementptr inbounds %"struct.facebook::velox::HashStringAllocator::Position", ptr %this1, i32 0, i32 1
  %1 = load ptr, ptr %position, align 8
  %cmp2 = icmp ne ptr %1, null
  br label %land.end

land.end:                                         ; preds = %land.rhs, %entry
  %2 = phi i1 [ false, %entry ], [ %cmp2, %land.rhs ]
  ret i1 %2
}

; Function Attrs: mustprogress uwtable
define noundef i64 @_ZN8facebook5velox19HashStringAllocator6offsetEPNS1_6HeaderENS1_8PositionE(ptr noundef %header, ptr %position.coerce0, ptr %position.coerce1) #0 align 2 {
entry:
  %retval = alloca i64, align 8
  %position = alloca %"struct.facebook::velox::HashStringAllocator::Position", align 8
  %header.addr = alloca ptr, align 8
  %size = alloca i64, align 8
  %length = alloca i32, align 4
  %offset = alloca i64, align 8
  %0 = getelementptr inbounds { ptr, ptr }, ptr %position, i32 0, i32 0
  store ptr %position.coerce0, ptr %0, align 8
  %1 = getelementptr inbounds { ptr, ptr }, ptr %position, i32 0, i32 1
  store ptr %position.coerce1, ptr %1, align 8
  store ptr %header, ptr %header.addr, align 8
  %call = call noundef zeroext i1 @_ZNK8facebook5velox19HashStringAllocator8Position5isSetEv(ptr noundef nonnull align 8 dereferenceable(16) %position)
  br i1 %call, label %if.end, label %if.then

if.then:                                          ; preds = %entry
  store i64 -1, ptr %retval, align 8
  br label %return

if.end:                                           ; preds = %entry
  store i64 0, ptr %size, align 8
  br label %for.cond

for.cond:                                         ; preds = %if.end9, %if.end
  %2 = load ptr, ptr %header.addr, align 8
  %call1 = call noundef i32 @_ZNK8facebook5velox19HashStringAllocator6Header10usableSizeEv(ptr noundef nonnull align 4 dereferenceable(4) %2)
  store i32 %call1, ptr %length, align 4
  %position2 = getelementptr inbounds %"struct.facebook::velox::HashStringAllocator::Position", ptr %position, i32 0, i32 1
  %3 = load ptr, ptr %position2, align 8
  %4 = load ptr, ptr %header.addr, align 8
  %call3 = call noundef ptr @_ZN8facebook5velox19HashStringAllocator6Header5beginEv(ptr noundef nonnull align 4 dereferenceable(4) %4)
  %sub.ptr.lhs.cast = ptrtoint ptr %3 to i64
  %sub.ptr.rhs.cast = ptrtoint ptr %call3 to i64
  %sub.ptr.sub = sub i64 %sub.ptr.lhs.cast, %sub.ptr.rhs.cast
  store i64 %sub.ptr.sub, ptr %offset, align 8
  %5 = load i64, ptr %offset, align 8
  %cmp = icmp sge i64 %5, 0
  br i1 %cmp, label %land.lhs.true, label %if.end6

land.lhs.true:                                    ; preds = %for.cond
  %6 = load i64, ptr %offset, align 8
  %7 = load i32, ptr %length, align 4
  %conv = sext i32 %7 to i64
  %cmp4 = icmp sle i64 %6, %conv
  br i1 %cmp4, label %if.then5, label %if.end6

if.then5:                                         ; preds = %land.lhs.true
  %8 = load i64, ptr %size, align 8
  %9 = load i64, ptr %offset, align 8
  %add = add nsw i64 %8, %9
  store i64 %add, ptr %retval, align 8
  br label %return

if.end6:                                          ; preds = %land.lhs.true, %for.cond
  %10 = load ptr, ptr %header.addr, align 8
  %call7 = call noundef zeroext i1 @_ZNK8facebook5velox19HashStringAllocator6Header11isContinuedEv(ptr noundef nonnull align 4 dereferenceable(4) %10)
  br i1 %call7, label %if.end9, label %if.then8

if.then8:                                         ; preds = %if.end6
  store i64 -1, ptr %retval, align 8
  br label %return

if.end9:                                          ; preds = %if.end6
  %11 = load i32, ptr %length, align 4
  %conv10 = sext i32 %11 to i64
  %12 = load i64, ptr %size, align 8
  %add11 = add nsw i64 %12, %conv10
  store i64 %add11, ptr %size, align 8
  %13 = load ptr, ptr %header.addr, align 8
  %call12 = call noundef ptr @_ZN8facebook5velox19HashStringAllocator6Header13nextContinuedEv(ptr noundef nonnull align 4 dereferenceable(4) %13)
  store ptr %call12, ptr %header.addr, align 8
  br label %for.cond, !llvm.loop !13

return:                                           ; preds = %if.then8, %if.then5, %if.then
  %14 = load i64, ptr %retval, align 8
  ret i64 %14
}