; Function Attrs: mustprogress nofree norecurse nosync nounwind willreturn memory(read, inaccessiblemem: none) uwtable
define noundef i64 @_ZN8facebook5velox19HashStringAllocator6offsetEPNS1_6HeaderENS1_8PositionE(ptr noundef %header, ptr readnone %position.coerce0, ptr %position.coerce1) local_unnamed_addr #11 align 2 {
entry:
  %cmp.not.i = icmp ne ptr %position.coerce0, null
  %cmp2.i = icmp ne ptr %position.coerce1, null
  %0 = select i1 %cmp.not.i, i1 %cmp2.i, i1 false
  br i1 %0, label %for.cond.preheader, label %return

for.cond.preheader:                               ; preds = %entry
  %sub.ptr.lhs.cast = ptrtoint ptr %position.coerce1 to i64
  %1 = load i32, ptr %header, align 4
  %and.i.i12 = and i32 %1, 1073741824
  %cmp.i.not.i13 = icmp eq i32 %and.i.i12, 0
  %and.i1.i14 = and i32 %1, 536870911
  %sub.i15 = add nsw i32 %and.i1.i14, -8
  %cond.i16 = select i1 %cmp.i.not.i13, i32 %and.i1.i14, i32 %sub.i15
  %add.ptr.i17 = getelementptr inbounds i8, ptr %header, i64 4
  %sub.ptr.rhs.cast18 = ptrtoint ptr %add.ptr.i17 to i64
  %sub.ptr.sub19 = sub i64 %sub.ptr.lhs.cast, %sub.ptr.rhs.cast18
  %cmp20 = icmp slt i64 %sub.ptr.sub19, 0
  %conv21 = sext i32 %cond.i16 to i64
  %cmp4.not22 = icmp sgt i64 %sub.ptr.sub19, %conv21
  %or.cond23 = or i1 %cmp20, %cmp4.not22
  br i1 %or.cond23, label %if.end6, label %if.then5

if.then5:                                         ; preds = %if.end9, %for.cond.preheader
  %size.0.lcssa = phi i64 [ 0, %for.cond.preheader ], [ %add11, %if.end9 ]
  %sub.ptr.sub.lcssa = phi i64 [ %sub.ptr.sub19, %for.cond.preheader ], [ %sub.ptr.sub, %if.end9 ]
  %add = add nsw i64 %sub.ptr.sub.lcssa, %size.0.lcssa
  br label %return

if.end6:                                          ; preds = %for.cond.preheader, %if.end9
  %conv28 = phi i64 [ %conv, %if.end9 ], [ %conv21, %for.cond.preheader ]
  %2 = phi ptr [ %4, %if.end9 ], [ %header, %for.cond.preheader ]
  %and.i1.i26 = phi i32 [ %and.i1.i, %if.end9 ], [ %and.i1.i14, %for.cond.preheader ]
  %and.i.i25 = phi i32 [ %and.i.i, %if.end9 ], [ %and.i.i12, %for.cond.preheader ]
  %size.024 = phi i64 [ %add11, %if.end9 ], [ 0, %for.cond.preheader ]
  %cmp.i.not = icmp eq i32 %and.i.i25, 0
  br i1 %cmp.i.not, label %return, label %if.end9

if.end9:                                          ; preds = %if.end6
  %3 = getelementptr inbounds i8, ptr %2, i64 4
  %add11 = add nsw i64 %conv28, %size.024
  %idx.ext.i.i = zext nneg i32 %and.i1.i26 to i64
  %add.ptr.i.i = getelementptr inbounds i8, ptr %3, i64 %idx.ext.i.i
  %add.ptr.i8 = getelementptr inbounds i8, ptr %add.ptr.i.i, i64 -8
  %4 = load ptr, ptr %add.ptr.i8, align 8
  %5 = load i32, ptr %4, align 4
  %and.i.i = and i32 %5, 1073741824
  %cmp.i.not.i = icmp eq i32 %and.i.i, 0
  %and.i1.i = and i32 %5, 536870911
  %sub.i = add nsw i32 %and.i1.i, -8
  %cond.i = select i1 %cmp.i.not.i, i32 %and.i1.i, i32 %sub.i
  %add.ptr.i = getelementptr inbounds i8, ptr %4, i64 4
  %sub.ptr.rhs.cast = ptrtoint ptr %add.ptr.i to i64
  %sub.ptr.sub = sub i64 %sub.ptr.lhs.cast, %sub.ptr.rhs.cast
  %cmp = icmp slt i64 %sub.ptr.sub, 0
  %conv = sext i32 %cond.i to i64
  %cmp4.not = icmp sgt i64 %sub.ptr.sub, %conv
  %or.cond = or i1 %cmp, %cmp4.not
  br i1 %or.cond, label %if.end6, label %if.then5, !llvm.loop !33

return:                                           ; preds = %if.end6, %entry, %if.then5
  %retval.0 = phi i64 [ %add, %if.then5 ], [ -1, %entry ], [ -1, %if.end6 ]
  ret i64 %retval.0
}